; ModuleID = 'source-C-CXX/4/888.c'
source_filename = "source-C-CXX/4/888.c"
target datalayout = "e-m:e-p270:32:32-p271:32:32-p272:64:64-i64:64-f80:128-n8:16:32:64-S128"
target triple = "x86_64-pc-linux-gnu"

@.str = private unnamed_addr constant [5 x i8] c"%lf\0A\00", align 1
@.str.1 = private unnamed_addr constant [4 x i8] c"%s\0A\00", align 1
@.str.2 = private unnamed_addr constant [6 x i8] c"error\00", align 1
@.str.3 = private unnamed_addr constant [4 x i8] c"yes\00", align 1
@.str.4 = private unnamed_addr constant [3 x i8] c"no\00", align 1

; Function Attrs: nofree nounwind sspstrong uwtable
define dso_local i32 @main() local_unnamed_addr #0 {
  %1 = alloca [520 x i8], align 16
  %2 = alloca [520 x i8], align 16
  %3 = alloca double, align 8
  %4 = getelementptr inbounds [520 x i8], [520 x i8]* %1, i64 0, i64 0
  call void @llvm.lifetime.start.p0i8(i64 520, i8* nonnull %4) #4
  %5 = getelementptr inbounds [520 x i8], [520 x i8]* %2, i64 0, i64 0
  call void @llvm.lifetime.start.p0i8(i64 520, i8* nonnull %5) #4
  %6 = bitcast double* %3 to i8*
  call void @llvm.lifetime.start.p0i8(i64 8, i8* nonnull %6) #4
  %7 = call i32 (i8*, ...) @__isoc99_scanf(i8* getelementptr inbounds ([5 x i8], [5 x i8]* @.str, i64 0, i64 0), double* nonnull %3)
  %8 = call i32 (i8*, ...) @__isoc99_scanf(i8* getelementptr inbounds ([4 x i8], [4 x i8]* @.str.1, i64 0, i64 0), i8* nonnull %4)
  %9 = call i32 (i8*, ...) @__isoc99_scanf(i8* getelementptr inbounds ([4 x i8], [4 x i8]* @.str.1, i64 0, i64 0), i8* nonnull %5)
  %10 = call i64 @strlen(i8* noundef nonnull %5) #5
  %11 = trunc i64 %10 to i32
  %12 = call i64 @strlen(i8* noundef nonnull %4) #5
  %13 = shl i64 %10, 32
  %14 = ashr exact i64 %13, 32
  %15 = icmp eq i64 %12, %14
  br i1 %15, label %16, label %43

16:                                               ; preds = %0
  %17 = icmp sgt i32 %11, 0
  br i1 %17, label %18, label %36

18:                                               ; preds = %16
  %19 = and i64 %10, 4294967295
  br label %20

20:                                               ; preds = %18, %28
  %21 = phi i64 [ 0, %18 ], [ %32, %28 ]
  %22 = phi i32 [ 0, %18 ], [ %31, %28 ]
  %23 = getelementptr inbounds [520 x i8], [520 x i8]* %1, i64 0, i64 %21
  %24 = load i8, i8* %23, align 1, !tbaa !5
  switch i8 %24, label %43 [
    i8 65, label %25
    i8 84, label %25
    i8 71, label %25
    i8 67, label %25
  ]

25:                                               ; preds = %20, %20, %20, %20
  %26 = getelementptr inbounds [520 x i8], [520 x i8]* %2, i64 0, i64 %21
  %27 = load i8, i8* %26, align 1, !tbaa !5
  switch i8 %27, label %43 [
    i8 65, label %28
    i8 84, label %28
    i8 71, label %28
    i8 67, label %28
  ]

28:                                               ; preds = %25, %25, %25, %25
  %29 = icmp eq i8 %24, %27
  %30 = zext i1 %29 to i32
  %31 = add nuw nsw i32 %22, %30
  %32 = add nuw nsw i64 %21, 1
  %33 = icmp eq i64 %32, %19
  br i1 %33, label %34, label %20, !llvm.loop !8

34:                                               ; preds = %28
  %35 = sitofp i32 %31 to double
  br label %36

36:                                               ; preds = %34, %16
  %37 = phi double [ 0.000000e+00, %16 ], [ %35, %34 ]
  %38 = sitofp i32 %11 to double
  %39 = fdiv double %37, %38
  %40 = load double, double* %3, align 8, !tbaa !10
  %41 = fcmp ogt double %39, %40
  %42 = select i1 %41, i8* getelementptr inbounds ([4 x i8], [4 x i8]* @.str.3, i64 0, i64 0), i8* getelementptr inbounds ([3 x i8], [3 x i8]* @.str.4, i64 0, i64 0)
  br label %43

43:                                               ; preds = %20, %25, %36, %0
  %44 = phi i8* [ getelementptr inbounds ([6 x i8], [6 x i8]* @.str.2, i64 0, i64 0), %0 ], [ %42, %36 ], [ getelementptr inbounds ([6 x i8], [6 x i8]* @.str.2, i64 0, i64 0), %25 ], [ getelementptr inbounds ([6 x i8], [6 x i8]* @.str.2, i64 0, i64 0), %20 ]
  %45 = call i32 (i8*, ...) @printf(i8* nonnull dereferenceable(1) %44)
  call void @llvm.lifetime.end.p0i8(i64 8, i8* nonnull %6) #4
  call void @llvm.lifetime.end.p0i8(i64 520, i8* nonnull %5) #4
  call void @llvm.lifetime.end.p0i8(i64 520, i8* nonnull %4) #4
  ret i32 0
}

; Function Attrs: argmemonly mustprogress nofree nosync nounwind willreturn
declare void @llvm.lifetime.start.p0i8(i64 immarg, i8* nocapture) #1

; Function Attrs: nofree nounwind
declare noundef i32 @__isoc99_scanf(i8* nocapture noundef readonly, ...) local_unnamed_addr #2

; Function Attrs: argmemonly mustprogress nofree nounwind readonly willreturn
declare i64 @strlen(i8* nocapture) local_unnamed_addr #3

; Function Attrs: nofree nounwind
declare noundef i32 @printf(i8* nocapture noundef readonly, ...) local_unnamed_addr #2

; Function Attrs: argmemonly mustprogress nofree nosync nounwind willreturn
declare void @llvm.lifetime.end.p0i8(i64 immarg, i8* nocapture) #1


!llvm.module.flags = !{!0, !1, !2, !3}
!llvm.ident = !{!4}

!0 = !{i32 1, !"wchar_size", i32 4}
!1 = !{i32 7, !"PIC Level", i32 2}
!2 = !{i32 7, !"PIE Level", i32 2}
!3 = !{i32 7, !"uwtable", i32 1}
!4 = !{!"clang version 13.0.0"}
!5 = !{!6, !6, i64 0}
!6 = !{!"omnipotent char", !7, i64 0}
!7 = !{!"Simple C/C++ TBAA"}
!8 = distinct !{!8, !9}
!9 = !{!"llvm.loop.mustprogress"}
!10 = !{!11, !11, i64 0}
!11 = !{!"double", !6, i64 0}
